target datalayout = "e-m:e-p270:32:32-p271:32:32-p272:64:64-i64:64-i128:128-f80:128-n8:16:32:64-S128"
target triple = "x86_64-pc-linux-gnu"

@stderr = external global ptr, align 8
@.str = private unnamed_addr constant [18 x i8] c"USAGE: %s <file>\0A\00", align 1
@.str.1 = private unnamed_addr constant [37 x i8] c"Could not obtain MD5 sum for %s:\0A%s\0A\00", align 1
@.str.2 = private unnamed_addr constant [8 x i8] c"%s  %s\0A\00", align 1

; Function Attrs: nounwind uwtable
define dso_local i32 @main(i32 noundef %0, ptr noundef %1) #0 {
  %3 = alloca i32, align 4
  %4 = alloca i32, align 4
  %5 = alloca ptr, align 8
  %6 = alloca ptr, align 8
  %7 = alloca [65 x i8], align 16
  %8 = alloca i32, align 4
  %9 = alloca i32, align 4
  store i32 0, ptr %3, align 4
  store i32 %0, ptr %4, align 4, !tbaa !4
  store ptr %1, ptr %5, align 8, !tbaa !8
  call void @llvm.lifetime.start.p0(i64 8, ptr %6) #5
  store ptr null, ptr %6, align 8, !tbaa !11
  call void @llvm.lifetime.start.p0(i64 65, ptr %7) #5
  call void @llvm.lifetime.start.p0(i64 4, ptr %8) #5
  %10 = load i32, ptr %4, align 4, !tbaa !4
  %11 = icmp slt i32 %10, 2
  br i1 %11, label %12, label %18

12:                                               ; preds = %2
  %13 = load ptr, ptr @stderr, align 8, !tbaa !13
  %14 = load ptr, ptr %5, align 8, !tbaa !8
  %15 = getelementptr inbounds ptr, ptr %14, i64 0
  %16 = load ptr, ptr %15, align 8, !tbaa !11
  %17 = call i32 (ptr, ptr, ...) @fprintf(ptr noundef %13, ptr noundef @.str, ptr noundef %16) #5
  store i32 -1, ptr %3, align 4
  store i32 1, ptr %9, align 4
  br label %56

18:                                               ; preds = %2
  store i32 1, ptr %8, align 4, !tbaa !4
  br label %19

19:                                               ; preds = %52, %18
  %20 = load i32, ptr %8, align 4, !tbaa !4
  %21 = load i32, ptr %4, align 4, !tbaa !4
  %22 = icmp slt i32 %20, %21
  br i1 %22, label %23, label %55

23:                                               ; preds = %19
  %24 = load ptr, ptr %5, align 8, !tbaa !8
  %25 = load i32, ptr %8, align 4, !tbaa !4
  %26 = sext i32 %25 to i64
  %27 = getelementptr inbounds ptr, ptr %24, i64 %26
  %28 = load ptr, ptr %27, align 8, !tbaa !11
  %29 = getelementptr inbounds [65 x i8], ptr %7, i64 0, i64 0
  %30 = call ptr @MD5File(ptr noundef %28, ptr noundef %29)
  store ptr %30, ptr %6, align 8, !tbaa !11
  %31 = load ptr, ptr %6, align 8, !tbaa !11
  %32 = icmp ne ptr %31, null
  br i1 %32, label %44, label %33

33:                                               ; preds = %23
  %34 = load ptr, ptr @stderr, align 8, !tbaa !13
  %35 = load ptr, ptr %5, align 8, !tbaa !8
  %36 = load i32, ptr %8, align 4, !tbaa !4
  %37 = sext i32 %36 to i64
  %38 = getelementptr inbounds ptr, ptr %35, i64 %37
  %39 = load ptr, ptr %38, align 8, !tbaa !11
  %40 = call ptr @__errno_location() #6
  %41 = load i32, ptr %40, align 4, !tbaa !4
  %42 = call ptr @strerror(i32 noundef %41) #5
  %43 = call i32 (ptr, ptr, ...) @fprintf(ptr noundef %34, ptr noundef @.str.1, ptr noundef %39, ptr noundef %42) #5
  store i32 -1, ptr %3, align 4
  store i32 1, ptr %9, align 4
  br label %56

44:                                               ; preds = %23
  %45 = load ptr, ptr %6, align 8, !tbaa !11
  %46 = load ptr, ptr %5, align 8, !tbaa !8
  %47 = load i32, ptr %8, align 4, !tbaa !4
  %48 = sext i32 %47 to i64
  %49 = getelementptr inbounds ptr, ptr %46, i64 %48
  %50 = load ptr, ptr %49, align 8, !tbaa !11
  %51 = call i32 (ptr, ...) @printf(ptr noundef @.str.2, ptr noundef %45, ptr noundef %50)
  br label %52

52:                                               ; preds = %44
  %53 = load i32, ptr %8, align 4, !tbaa !4
  %54 = add nsw i32 %53, 1
  store i32 %54, ptr %8, align 4, !tbaa !4
  br label %19, !llvm.loop !15

55:                                               ; preds = %19
  store i32 0, ptr %3, align 4
  store i32 1, ptr %9, align 4
  br label %56

56:                                               ; preds = %55, %33, %12
  call void @llvm.lifetime.end.p0(i64 4, ptr %8) #5
  call void @llvm.lifetime.end.p0(i64 65, ptr %7) #5
  call void @llvm.lifetime.end.p0(i64 8, ptr %6) #5
  %57 = load i32, ptr %3, align 4
  ret i32 %57
}

; Function Attrs: nocallback nofree nosync nounwind willreturn memory(argmem: readwrite)
declare void @llvm.lifetime.start.p0(i64 immarg, ptr captures(none)) #1

; Function Attrs: nounwind
declare i32 @fprintf(ptr noundef, ptr noundef, ...) #2

declare ptr @MD5File(ptr noundef, ptr noundef) #3

; Function Attrs: nounwind
declare ptr @strerror(i32 noundef) #2

; Function Attrs: nounwind willreturn memory(none)
declare ptr @__errno_location() #4

declare i32 @printf(ptr noundef, ...) #3

; Function Attrs: nocallback nofree nosync nounwind willreturn memory(argmem: readwrite)
declare void @llvm.lifetime.end.p0(i64 immarg, ptr captures(none)) #1


!llvm.module.flags = !{!0, !1, !2, !3}

!0 = !{i32 1, !"wchar_size", i32 4}
!1 = !{i32 8, !"PIC Level", i32 2}
!2 = !{i32 7, !"PIE Level", i32 2}
!3 = !{i32 7, !"uwtable", i32 2}
!4 = !{!5, !5, i64 0}
!5 = !{!"int", !6, i64 0}
!6 = !{!"omnipotent char", !7, i64 0}
!7 = !{!"Simple C/C++ TBAA"}
!8 = !{!9, !9, i64 0}
!9 = !{!"p2 omnipotent char", !10, i64 0}
!10 = !{!"any pointer", !6, i64 0}
!11 = !{!12, !12, i64 0}
!12 = !{!"p1 omnipotent char", !10, i64 0}
!13 = !{!14, !14, i64 0}
!14 = !{!"p1 _ZTS8_IO_FILE", !10, i64 0}
!15 = distinct !{!15, !16}
!16 = !{!"llvm.loop.mustprogress"}
